; Function Attrs: mustprogress nofree norecurse nosync nounwind willreturn memory(readwrite, inaccessiblemem: none) uwtable
define internal noundef i32 @haldclutsrc_config_props(ptr noundef captures(none) initializes((40, 56), (96, 104), (264, 272)) %0) #7 {
  %2 = load ptr, ptr %0, align 8, !tbaa !38
  %3 = getelementptr inbounds nuw i8, ptr %2, i64 72
  %4 = load ptr, ptr %3, align 8, !tbaa !4
  %5 = getelementptr inbounds nuw i8, ptr %4, i64 324
  %6 = load i32, ptr %5, align 4, !tbaa !66
  %7 = mul nsw i32 %6, %6
  %8 = mul nsw i32 %7, %6
  %9 = getelementptr inbounds nuw i8, ptr %4, i64 12
  store i32 %8, ptr %9, align 4, !tbaa !37
  %10 = getelementptr inbounds nuw i8, ptr %4, i64 8
  store i32 %8, ptr %10, align 8, !tbaa !36
  %11 = getelementptr inbounds nuw i8, ptr %0, i64 40
  store i32 %8, ptr %11, align 8, !tbaa !64
  %12 = getelementptr inbounds nuw i8, ptr %0, i64 44
  store i32 %8, ptr %12, align 4, !tbaa !65
  %13 = getelementptr inbounds nuw i8, ptr %0, i64 48
  %14 = getelementptr inbounds nuw i8, ptr %4, i64 64
  %15 = load i64, ptr %14, align 8
  store i64 %15, ptr %13, align 8
  %16 = getelementptr inbounds nuw i8, ptr %0, i64 264
  %17 = getelementptr inbounds nuw i8, ptr %4, i64 36
  %18 = load i64, ptr %17, align 4
  store i64 %18, ptr %16, align 8
  %19 = getelementptr inbounds nuw i8, ptr %0, i64 96
  %20 = getelementptr inbounds nuw i8, ptr %4, i64 28
  %21 = load i64, ptr %20, align 4
  store i64 %21, ptr %19, align 8
  ret i32 0
}